; Function Attrs: cold nounwind optsize uwtable
define internal void @uninit(ptr noundef readonly captures(none) %0) #1 {
  %2 = getelementptr inbounds nuw i8, ptr %0, i64 72
  %3 = load ptr, ptr %2, align 8, !tbaa !4
  %4 = getelementptr inbounds nuw i8, ptr %3, i64 144
  tail call void @av_frame_free(ptr noundef nonnull %4) #12
  %5 = getelementptr inbounds nuw i8, ptr %3, i64 152
  tail call void @av_frame_free(ptr noundef nonnull %5) #12
  %6 = getelementptr inbounds nuw i8, ptr %3, i64 240
  tail call void @av_frame_free(ptr noundef nonnull %6) #12
  %7 = getelementptr inbounds nuw i8, ptr %3, i64 256
  tail call void @av_frame_free(ptr noundef nonnull %7) #12
  %8 = getelementptr inbounds nuw i8, ptr %3, i64 224
  tail call void @av_freep(ptr noundef nonnull %8) #12
  %9 = getelementptr inbounds nuw i8, ptr %3, i64 232
  tail call void @av_freep(ptr noundef nonnull %9) #12
  %10 = getelementptr inbounds nuw i8, ptr %3, i64 160
  tail call void @av_freep(ptr noundef nonnull %10) #12
  %11 = getelementptr inbounds nuw i8, ptr %3, i64 168
  tail call void @av_freep(ptr noundef nonnull %11) #12
  %12 = getelementptr inbounds nuw i8, ptr %3, i64 176
  tail call void @av_freep(ptr noundef nonnull %12) #12
  %13 = getelementptr inbounds nuw i8, ptr %3, i64 184
  tail call void @av_freep(ptr noundef nonnull %13) #12
  ret void
}